target datalayout = "e-m:e-p270:32:32-p271:32:32-p272:64:64-i64:64-i128:128-f80:128-n8:16:32:64-S128"
target triple = "x86_64-unknown-linux-gnu"

%"class.arrow::Buffer" = type { ptr, i8, i8, ptr, i64, i64, i8, %"class.std::shared_ptr", %"class.std::shared_ptr.2" }
%"class.std::shared_ptr" = type { %"class.std::__shared_ptr" }
%"class.std::__shared_ptr" = type { ptr, %"class.std::__shared_count" }
%"class.std::__shared_count" = type { ptr }
%"class.std::shared_ptr.2" = type { %"class.std::__shared_ptr.3" }
%"class.std::__shared_ptr.3" = type { ptr, %"class.std::__shared_count" }

; Function Attrs: mustprogress nounwind uwtable
define noundef zeroext i1 @_ZNK5arrow6Buffer6EqualsERKS0_(ptr noundef nonnull align 8 dereferenceable(80) %this, ptr noundef nonnull align 8 dereferenceable(80) %other) #1 align 2 {
entry:
  %this.addr = alloca ptr, align 8
  %other.addr = alloca ptr, align 8
  store ptr %this, ptr %this.addr, align 8
  store ptr %other, ptr %other.addr, align 8
  %this1 = load ptr, ptr %this.addr, align 8
  %0 = load ptr, ptr %other.addr, align 8
  %cmp = icmp eq ptr %this1, %0
  br i1 %cmp, label %lor.end10, label %lor.rhs

lor.rhs:                                          ; preds = %entry
  %size_ = getelementptr inbounds %"class.arrow::Buffer", ptr %this1, i32 0, i32 4
  %1 = load i64, ptr %size_, align 8
  %2 = load ptr, ptr %other.addr, align 8
  %size_2 = getelementptr inbounds %"class.arrow::Buffer", ptr %2, i32 0, i32 4
  %3 = load i64, ptr %size_2, align 8
  %cmp3 = icmp eq i64 %1, %3
  br i1 %cmp3, label %land.rhs, label %land.end

land.rhs:                                         ; preds = %lor.rhs
  %data_ = getelementptr inbounds %"class.arrow::Buffer", ptr %this1, i32 0, i32 3
  %4 = load ptr, ptr %data_, align 8
  %5 = load ptr, ptr %other.addr, align 8
  %data_4 = getelementptr inbounds %"class.arrow::Buffer", ptr %5, i32 0, i32 3
  %6 = load ptr, ptr %data_4, align 8
  %cmp5 = icmp eq ptr %4, %6
  br i1 %cmp5, label %lor.end, label %lor.rhs6

lor.rhs6:                                         ; preds = %land.rhs
  %data_7 = getelementptr inbounds %"class.arrow::Buffer", ptr %this1, i32 0, i32 3
  %7 = load ptr, ptr %data_7, align 8
  %8 = load ptr, ptr %other.addr, align 8
  %data_8 = getelementptr inbounds %"class.arrow::Buffer", ptr %8, i32 0, i32 3
  %9 = load ptr, ptr %data_8, align 8
  %size_9 = getelementptr inbounds %"class.arrow::Buffer", ptr %this1, i32 0, i32 4
  %10 = load i64, ptr %size_9, align 8
  %call = call i32 @memcmp(ptr noundef %7, ptr noundef %9, i64 noundef %10) #15
  %tobool = icmp ne i32 %call, 0
  %lnot = xor i1 %tobool, true
  br label %lor.end

lor.end:                                          ; preds = %lor.rhs6, %land.rhs
  %11 = phi i1 [ true, %land.rhs ], [ %lnot, %lor.rhs6 ]
  br label %land.end

land.end:                                         ; preds = %lor.end, %lor.rhs
  %12 = phi i1 [ false, %lor.rhs ], [ %11, %lor.end ]
  br label %lor.end10

lor.end10:                                        ; preds = %land.end, %entry
  %13 = phi i1 [ true, %entry ], [ %12, %land.end ]
  ret i1 %13
}