; Function Attrs: mustprogress nofree nounwind willreturn memory(read, inaccessiblemem: none) uwtable
define noundef zeroext i1 @_ZNK5arrow6Buffer6EqualsERKS0_(ptr noundef nonnull readonly align 8 dereferenceable(80) %this, ptr noundef nonnull readonly align 8 dereferenceable(80) %other) local_unnamed_addr #5 align 2 {
entry:
  %cmp = icmp eq ptr %this, %other
  br i1 %cmp, label %lor.end10, label %lor.rhs

lor.rhs:                                          ; preds = %entry
  %size_ = getelementptr inbounds i8, ptr %this, i64 24
  %0 = load i64, ptr %size_, align 8
  %size_2 = getelementptr inbounds i8, ptr %other, i64 24
  %1 = load i64, ptr %size_2, align 8
  %cmp3 = icmp eq i64 %0, %1
  br i1 %cmp3, label %land.rhs, label %lor.end10

land.rhs:                                         ; preds = %lor.rhs
  %data_ = getelementptr inbounds i8, ptr %this, i64 16
  %2 = load ptr, ptr %data_, align 8
  %data_4 = getelementptr inbounds i8, ptr %other, i64 16
  %3 = load ptr, ptr %data_4, align 8
  %cmp5 = icmp eq ptr %2, %3
  br i1 %cmp5, label %lor.end10, label %lor.rhs6

lor.rhs6:                                         ; preds = %land.rhs
  %bcmp = tail call i32 @bcmp(ptr %2, ptr %3, i64 %0)
  %tobool.not = icmp eq i32 %bcmp, 0
  br label %lor.end10

lor.end10:                                        ; preds = %lor.rhs, %lor.rhs6, %land.rhs, %entry
  %4 = phi i1 [ true, %entry ], [ false, %lor.rhs ], [ true, %land.rhs ], [ %tobool.not, %lor.rhs6 ]
  ret i1 %4
}